target datalayout = "e-m:e-p270:32:32-p271:32:32-p272:64:64-i64:64-i128:128-f80:128-n8:16:32:64-S128"
target triple = "x86_64-pc-linux-gnu"

%struct.H5F_shared_t = type { ptr, ptr, ptr, i8, i32, i32, %struct.H5F_mtab_t, ptr, i8, i8, i64, i32, i32, i64, i64, ptr, ptr, %struct.H5AC_cache_config_t, %struct.H5AC_cache_image_config_t, i8, i8, ptr, i64, i32, i8, i64, i64, double, i64, i64, i64, i32, i32, i32, i8, i32, ptr, ptr, ptr, ptr, i8, i8, i8, i64, ptr, ptr, i32, i64, i8, i32, i8, i64, i8, [13 x i32], [13 x i64], [13 x ptr], i8, i64, i64, [7 x i32], [7 x i32], %struct.H5F_blk_aggr_t, %struct.H5F_blk_aggr_t, i64, i64, %struct.H5F_meta_accum_t, i32, i32, [30 x ptr], %struct.H5F_object_flush_t, i8, ptr }
%struct.H5F_mtab_t = type { i32, i32, ptr }
%struct.H5AC_cache_config_t = type { i32, i8, i8, i8, [1025 x i8], i8, i8, i64, double, i64, i64, i64, i32, double, double, i8, i64, i32, double, double, i32, double, double, i8, i64, i32, i8, double, i64, i32 }
%struct.H5AC_cache_image_config_t = type { i32, i8, i8, i32 }
%struct.H5F_blk_aggr_t = type { i64, i64, i64, i64, i64 }
%struct.H5F_meta_accum_t = type { ptr, i64, i64, i64, i64, i64, i8 }
%struct.H5F_object_flush_t = type { ptr, ptr }
%struct.H5F_t = type { ptr, ptr, ptr, ptr, i32, ptr, i8, i8, ptr, i32 }
%struct.H5FD_t = type { i64, ptr, i64, i32, i64, i64, i64, i64, i64, i8 }
%struct.H5FD_class_t = type { i32, i32, ptr, i64, i32, ptr, ptr, ptr, ptr, i64, ptr, ptr, ptr, i64, ptr, ptr, ptr, ptr, ptr, ptr, ptr, ptr, ptr, ptr, ptr, ptr, ptr, ptr, ptr, ptr, ptr, ptr, ptr, ptr, ptr, ptr, ptr, ptr, ptr, [7 x i32] }

@H5F_init_g = external global i8, align 1
@H5_libterm_g = external global i8, align 1

; Function Attrs: nounwind uwtable
define zeroext i1 @H5F_has_vector_select_io(ptr noundef %0, i1 noundef zeroext %1) #0 {
  %3 = alloca ptr, align 8
  %4 = alloca i8, align 1
  %5 = alloca i8, align 1
  store ptr %0, ptr %3, align 8, !tbaa !36
  %6 = zext i1 %1 to i8
  store i8 %6, ptr %4, align 1, !tbaa !8
  call void @llvm.lifetime.start.p0(i64 1, ptr %5) #4
  store i8 0, ptr %5, align 1, !tbaa !8
  %7 = load i8, ptr @H5F_init_g, align 1, !tbaa !8, !range !10, !noundef !11
  %8 = trunc i8 %7 to i1
  br i1 %8, label %13, label %9

9:                                                ; preds = %2
  %10 = load i8, ptr @H5_libterm_g, align 1, !tbaa !8, !range !10, !noundef !11
  %11 = trunc i8 %10 to i1
  %12 = xor i1 %11, true
  br label %13

13:                                               ; preds = %9, %2
  %14 = phi i1 [ true, %2 ], [ %12, %9 ]
  %15 = xor i1 %14, true
  %16 = xor i1 %15, true
  %17 = zext i1 %16 to i32
  %18 = sext i32 %17 to i64
  %19 = call i64 @llvm.expect.i64(i64 %18, i64 1)
  %20 = icmp ne i64 %19, 0
  br i1 %20, label %21, label %75

21:                                               ; preds = %13
  %22 = load i8, ptr %4, align 1, !tbaa !8, !range !10, !noundef !11
  %23 = trunc i8 %22 to i1
  br i1 %23, label %24, label %49

24:                                               ; preds = %21
  %25 = load ptr, ptr %3, align 8, !tbaa !36
  %26 = getelementptr inbounds nuw %struct.H5F_t, ptr %25, i32 0, i32 2
  %27 = load ptr, ptr %26, align 8, !tbaa !38
  %28 = getelementptr inbounds nuw %struct.H5F_shared_t, ptr %27, i32 0, i32 0
  %29 = load ptr, ptr %28, align 8, !tbaa !84
  %30 = getelementptr inbounds nuw %struct.H5FD_t, ptr %29, i32 0, i32 1
  %31 = load ptr, ptr %30, align 8, !tbaa !114
  %32 = getelementptr inbounds nuw %struct.H5FD_class_t, ptr %31, i32 0, i32 30
  %33 = load ptr, ptr %32, align 8, !tbaa !115
  %34 = icmp ne ptr %33, null
  br i1 %34, label %46, label %35

35:                                               ; preds = %24
  %36 = load ptr, ptr %3, align 8, !tbaa !36
  %37 = getelementptr inbounds nuw %struct.H5F_t, ptr %36, i32 0, i32 2
  %38 = load ptr, ptr %37, align 8, !tbaa !38
  %39 = getelementptr inbounds nuw %struct.H5F_shared_t, ptr %38, i32 0, i32 0
  %40 = load ptr, ptr %39, align 8, !tbaa !84
  %41 = getelementptr inbounds nuw %struct.H5FD_t, ptr %40, i32 0, i32 1
  %42 = load ptr, ptr %41, align 8, !tbaa !114
  %43 = getelementptr inbounds nuw %struct.H5FD_class_t, ptr %42, i32 0, i32 32
  %44 = load ptr, ptr %43, align 8, !tbaa !117
  %45 = icmp ne ptr %44, null
  br label %46

46:                                               ; preds = %35, %24
  %47 = phi i1 [ true, %24 ], [ %45, %35 ]
  %48 = zext i1 %47 to i8
  store i8 %48, ptr %5, align 1, !tbaa !8
  br label %74

49:                                               ; preds = %21
  %50 = load ptr, ptr %3, align 8, !tbaa !36
  %51 = getelementptr inbounds nuw %struct.H5F_t, ptr %50, i32 0, i32 2
  %52 = load ptr, ptr %51, align 8, !tbaa !38
  %53 = getelementptr inbounds nuw %struct.H5F_shared_t, ptr %52, i32 0, i32 0
  %54 = load ptr, ptr %53, align 8, !tbaa !84
  %55 = getelementptr inbounds nuw %struct.H5FD_t, ptr %54, i32 0, i32 1
  %56 = load ptr, ptr %55, align 8, !tbaa !114
  %57 = getelementptr inbounds nuw %struct.H5FD_class_t, ptr %56, i32 0, i32 29
  %58 = load ptr, ptr %57, align 8, !tbaa !118
  %59 = icmp ne ptr %58, null
  br i1 %59, label %71, label %60

60:                                               ; preds = %49
  %61 = load ptr, ptr %3, align 8, !tbaa !36
  %62 = getelementptr inbounds nuw %struct.H5F_t, ptr %61, i32 0, i32 2
  %63 = load ptr, ptr %62, align 8, !tbaa !38
  %64 = getelementptr inbounds nuw %struct.H5F_shared_t, ptr %63, i32 0, i32 0
  %65 = load ptr, ptr %64, align 8, !tbaa !84
  %66 = getelementptr inbounds nuw %struct.H5FD_t, ptr %65, i32 0, i32 1
  %67 = load ptr, ptr %66, align 8, !tbaa !114
  %68 = getelementptr inbounds nuw %struct.H5FD_class_t, ptr %67, i32 0, i32 31
  %69 = load ptr, ptr %68, align 8, !tbaa !119
  %70 = icmp ne ptr %69, null
  br label %71

71:                                               ; preds = %60, %49
  %72 = phi i1 [ true, %49 ], [ %70, %60 ]
  %73 = zext i1 %72 to i8
  store i8 %73, ptr %5, align 1, !tbaa !8
  br label %74

74:                                               ; preds = %71, %46
  br label %75

75:                                               ; preds = %74, %13
  %76 = load i8, ptr %5, align 1, !tbaa !8, !range !10, !noundef !11
  %77 = trunc i8 %76 to i1
  call void @llvm.lifetime.end.p0(i64 1, ptr %5) #4
  ret i1 %77
}