; Function Attrs: mustprogress nofree norecurse nosync nounwind willreturn memory(read, inaccessiblemem: none) uwtable
define zeroext i1 @H5F_has_vector_select_io(ptr noundef readonly captures(none) %0, i1 noundef zeroext %1) local_unnamed_addr #1 {
  %3 = load i8, ptr @H5F_init_g, align 1, !tbaa !84, !range !43, !noundef !44
  %4 = trunc nuw i8 %3 to i1
  %5 = load i8, ptr @H5_libterm_g, align 1, !range !43
  %6 = trunc nuw i8 %5 to i1
  %7 = xor i1 %6, true
  %8 = select i1 %4, i1 true, i1 %7
  br i1 %8, label %9, label %24, !prof !85

9:                                                ; preds = %2
  %10 = getelementptr inbounds nuw i8, ptr %0, i64 16
  %11 = load ptr, ptr %10, align 8, !tbaa !31
  %12 = load ptr, ptr %11, align 8, !tbaa !79
  %13 = getelementptr inbounds nuw i8, ptr %12, i64 8
  %14 = load ptr, ptr %13, align 8, !tbaa !105
  br i1 %1, label %15, label %18

15:                                               ; preds = %9
  %16 = getelementptr inbounds nuw i8, ptr %14, i64 232
  %17 = load ptr, ptr %16, align 8, !tbaa !106
  %.not5 = icmp eq ptr %17, null
  br i1 %.not5, label %.sink.split, label %24

18:                                               ; preds = %9
  %19 = getelementptr inbounds nuw i8, ptr %14, i64 224
  %20 = load ptr, ptr %19, align 8, !tbaa !108
  %.not = icmp eq ptr %20, null
  br i1 %.not, label %.sink.split, label %24

.sink.split:                                      ; preds = %18, %15
  %.sink = phi i64 [ 248, %15 ], [ 240, %18 ]
  %21 = getelementptr inbounds nuw i8, ptr %14, i64 %.sink
  %22 = load ptr, ptr %21, align 8, !tbaa !109
  %23 = icmp ne ptr %22, null
  br label %24

24:                                               ; preds = %.sink.split, %18, %15, %2
  %.0 = phi i1 [ false, %2 ], [ true, %15 ], [ true, %18 ], [ %23, %.sink.split ]
  ret i1 %.0
}